target datalayout = "e-m:e-p270:32:32-p271:32:32-p272:64:64-i64:64-i128:128-f80:128-n8:16:32:64-S128"
target triple = "x86_64-pc-linux-gnu"

%struct.AVAudioFifo = type { ptr, i32, i32, i32, i32, i32, i32 }

; Function Attrs: nounwind uwtable
define i32 @av_audio_fifo_peek_at(ptr noundef %0, ptr noundef %1, i32 noundef %2, i32 noundef %3) #0 {
  %5 = alloca i32, align 4
  %6 = alloca ptr, align 8
  %7 = alloca ptr, align 8
  %8 = alloca i32, align 4
  %9 = alloca i32, align 4
  %10 = alloca i32, align 4
  %11 = alloca i32, align 4
  %12 = alloca i32, align 4
  %13 = alloca i32, align 4
  store ptr %0, ptr %6, align 8, !tbaa !4
  store ptr %1, ptr %7, align 8, !tbaa !28
  store i32 %2, ptr %8, align 4, !tbaa !14
  store i32 %3, ptr %9, align 4, !tbaa !14
  call void @llvm.lifetime.start.p0(i64 4, ptr %10) #3
  call void @llvm.lifetime.start.p0(i64 4, ptr %11) #3
  call void @llvm.lifetime.start.p0(i64 4, ptr %12) #3
  %14 = load i32, ptr %9, align 4, !tbaa !14
  %15 = icmp slt i32 %14, 0
  br i1 %15, label %22, label %16

16:                                               ; preds = %4
  %17 = load i32, ptr %9, align 4, !tbaa !14
  %18 = load ptr, ptr %6, align 8, !tbaa !4
  %19 = getelementptr inbounds nuw %struct.AVAudioFifo, ptr %18, i32 0, i32 2
  %20 = load i32, ptr %19, align 4, !tbaa !31
  %21 = icmp sge i32 %17, %20
  br i1 %21, label %22, label %23

22:                                               ; preds = %16, %4
  store i32 -22, ptr %5, align 4
  store i32 1, ptr %13, align 4
  br label %96

23:                                               ; preds = %16
  %24 = load i32, ptr %8, align 4, !tbaa !14
  %25 = icmp slt i32 %24, 0
  br i1 %25, label %26, label %27

26:                                               ; preds = %23
  store i32 -22, ptr %5, align 4
  store i32 1, ptr %13, align 4
  br label %96

27:                                               ; preds = %23
  %28 = load i32, ptr %8, align 4, !tbaa !14
  %29 = load ptr, ptr %6, align 8, !tbaa !4
  %30 = getelementptr inbounds nuw %struct.AVAudioFifo, ptr %29, i32 0, i32 2
  %31 = load i32, ptr %30, align 4, !tbaa !31
  %32 = icmp sgt i32 %28, %31
  br i1 %32, label %33, label %37

33:                                               ; preds = %27
  %34 = load ptr, ptr %6, align 8, !tbaa !4
  %35 = getelementptr inbounds nuw %struct.AVAudioFifo, ptr %34, i32 0, i32 2
  %36 = load i32, ptr %35, align 4, !tbaa !31
  br label %39

37:                                               ; preds = %27
  %38 = load i32, ptr %8, align 4, !tbaa !14
  br label %39

39:                                               ; preds = %37, %33
  %40 = phi i32 [ %36, %33 ], [ %38, %37 ]
  store i32 %40, ptr %8, align 4, !tbaa !14
  %41 = load i32, ptr %8, align 4, !tbaa !14
  %42 = icmp ne i32 %41, 0
  br i1 %42, label %44, label %43

43:                                               ; preds = %39
  store i32 0, ptr %5, align 4
  store i32 1, ptr %13, align 4
  br label %96

44:                                               ; preds = %39
  %45 = load i32, ptr %9, align 4, !tbaa !14
  %46 = load ptr, ptr %6, align 8, !tbaa !4
  %47 = getelementptr inbounds nuw %struct.AVAudioFifo, ptr %46, i32 0, i32 2
  %48 = load i32, ptr %47, align 4, !tbaa !31
  %49 = load i32, ptr %8, align 4, !tbaa !14
  %50 = sub nsw i32 %48, %49
  %51 = icmp sgt i32 %45, %50
  br i1 %51, label %52, label %53

52:                                               ; preds = %44
  store i32 -22, ptr %5, align 4
  store i32 1, ptr %13, align 4
  br label %96

53:                                               ; preds = %44
  %54 = load ptr, ptr %6, align 8, !tbaa !4
  %55 = getelementptr inbounds nuw %struct.AVAudioFifo, ptr %54, i32 0, i32 6
  %56 = load i32, ptr %55, align 4, !tbaa !20
  %57 = load i32, ptr %9, align 4, !tbaa !14
  %58 = mul nsw i32 %57, %56
  store i32 %58, ptr %9, align 4, !tbaa !14
  %59 = load i32, ptr %8, align 4, !tbaa !14
  %60 = load ptr, ptr %6, align 8, !tbaa !4
  %61 = getelementptr inbounds nuw %struct.AVAudioFifo, ptr %60, i32 0, i32 6
  %62 = load i32, ptr %61, align 4, !tbaa !20
  %63 = mul nsw i32 %59, %62
  store i32 %63, ptr %12, align 4, !tbaa !14
  store i32 0, ptr %10, align 4, !tbaa !14
  br label %64

64:                                               ; preds = %91, %53
  %65 = load i32, ptr %10, align 4, !tbaa !14
  %66 = load ptr, ptr %6, align 8, !tbaa !4
  %67 = getelementptr inbounds nuw %struct.AVAudioFifo, ptr %66, i32 0, i32 1
  %68 = load i32, ptr %67, align 8, !tbaa !15
  %69 = icmp slt i32 %65, %68
  br i1 %69, label %70, label %94

70:                                               ; preds = %64
  %71 = load ptr, ptr %6, align 8, !tbaa !4
  %72 = getelementptr inbounds nuw %struct.AVAudioFifo, ptr %71, i32 0, i32 0
  %73 = load ptr, ptr %72, align 8, !tbaa !9
  %74 = load i32, ptr %10, align 4, !tbaa !14
  %75 = sext i32 %74 to i64
  %76 = getelementptr inbounds ptr, ptr %73, i64 %75
  %77 = load ptr, ptr %76, align 8, !tbaa !21
  %78 = load ptr, ptr %7, align 8, !tbaa !28
  %79 = load i32, ptr %10, align 4, !tbaa !14
  %80 = sext i32 %79 to i64
  %81 = getelementptr inbounds ptr, ptr %78, i64 %80
  %82 = load ptr, ptr %81, align 8, !tbaa !29
  %83 = load i32, ptr %12, align 4, !tbaa !14
  %84 = sext i32 %83 to i64
  %85 = load i32, ptr %9, align 4, !tbaa !14
  %86 = sext i32 %85 to i64
  %87 = call i32 @av_fifo_peek(ptr noundef %77, ptr noundef %82, i64 noundef %84, i64 noundef %86)
  store i32 %87, ptr %11, align 4, !tbaa !14
  %88 = icmp slt i32 %87, 0
  br i1 %88, label %89, label %90

89:                                               ; preds = %70
  store i32 -558323010, ptr %5, align 4
  store i32 1, ptr %13, align 4
  br label %96

90:                                               ; preds = %70
  br label %91

91:                                               ; preds = %90
  %92 = load i32, ptr %10, align 4, !tbaa !14
  %93 = add nsw i32 %92, 1
  store i32 %93, ptr %10, align 4, !tbaa !14
  br label %64, !llvm.loop !32

94:                                               ; preds = %64
  %95 = load i32, ptr %8, align 4, !tbaa !14
  store i32 %95, ptr %5, align 4
  store i32 1, ptr %13, align 4
  br label %96

96:                                               ; preds = %94, %89, %52, %43, %26, %22
  call void @llvm.lifetime.end.p0(i64 4, ptr %12) #3
  call void @llvm.lifetime.end.p0(i64 4, ptr %11) #3
  call void @llvm.lifetime.end.p0(i64 4, ptr %10) #3
  %97 = load i32, ptr %5, align 4
  ret i32 %97
}