; Function Attrs: nounwind uwtable
define range(i32 -558323010, -2147483648) i32 @av_audio_fifo_peek_at(ptr noundef readonly captures(none) %0, ptr noundef readonly captures(none) %1, i32 noundef %2, i32 noundef %3) local_unnamed_addr #0 {
  %5 = icmp slt i32 %3, 0
  br i1 %5, label %.loopexit, label %6

6:                                                ; preds = %4
  %7 = getelementptr inbounds nuw i8, ptr %0, i64 12
  %8 = load i32, ptr %7, align 4, !tbaa !24
  %.not = icmp sge i32 %3, %8
  %9 = icmp slt i32 %2, 0
  %or.cond = or i1 %9, %.not
  br i1 %or.cond, label %.loopexit, label %10

10:                                               ; preds = %6
  %. = tail call i32 @llvm.umin.i32(i32 %2, i32 %8)
  %.not31 = icmp eq i32 %., 0
  br i1 %.not31, label %.loopexit, label %11

11:                                               ; preds = %10
  %12 = sub nsw i32 %8, %.
  %13 = icmp sgt i32 %3, %12
  br i1 %13, label %.loopexit, label %14

14:                                               ; preds = %11
  %15 = getelementptr inbounds nuw i8, ptr %0, i64 8
  %16 = load i32, ptr %15, align 8, !tbaa !12
  %17 = icmp sgt i32 %16, 0
  br i1 %17, label %.lr.ph, label %.loopexit

.lr.ph:                                           ; preds = %14
  %18 = getelementptr inbounds nuw i8, ptr %0, i64 28
  %19 = load i32, ptr %18, align 4, !tbaa !18
  %20 = mul nsw i32 %19, %.
  %21 = mul nsw i32 %19, %3
  %22 = sext i32 %20 to i64
  %23 = sext i32 %21 to i64
  br label %28

24:                                               ; preds = %28
  %indvars.iv.next = add nuw nsw i64 %indvars.iv, 1
  %25 = load i32, ptr %15, align 8, !tbaa !12
  %26 = sext i32 %25 to i64
  %27 = icmp slt i64 %indvars.iv.next, %26
  br i1 %27, label %28, label %.loopexit, !llvm.loop !27

28:                                               ; preds = %.lr.ph, %24
  %indvars.iv = phi i64 [ 0, %.lr.ph ], [ %indvars.iv.next, %24 ]
  %29 = load ptr, ptr %0, align 8, !tbaa !4
  %30 = getelementptr inbounds nuw ptr, ptr %29, i64 %indvars.iv
  %31 = load ptr, ptr %30, align 8, !tbaa !20
  %32 = getelementptr inbounds nuw ptr, ptr %1, i64 %indvars.iv
  %33 = load ptr, ptr %32, align 8, !tbaa !26
  %34 = tail call i32 @av_fifo_peek(ptr noundef %31, ptr noundef %33, i64 noundef %22, i64 noundef %23) #5
  %35 = icmp slt i32 %34, 0
  br i1 %35, label %.loopexit, label %24

.loopexit:                                        ; preds = %28, %24, %14, %11, %10, %4, %6
  %.0 = phi i32 [ -22, %6 ], [ -22, %4 ], [ 0, %10 ], [ -22, %11 ], [ %., %14 ], [ -558323010, %28 ], [ %., %24 ]
  ret i32 %.0
}